target datalayout = "e-m:e-p270:32:32-p271:32:32-p272:64:64-i64:64-i128:128-f80:128-n8:16:32:64-S128"
target triple = "x86_64-pc-linux-gnu"

%"class.gmx::internal::AnalysisNeighborhoodSearchImpl" = type { i8, float, float, i8, i32, ptr, ptr, ptr, ptr, %struct.t_pbc, i8, i8, [3 x i8], %"class.std::vector", [3 x float], [3 x float], [3 x float], float, float, float, [3 x i32], %"class.std::vector.0", %"class.std::mutex", %"class.std::vector.5" }
%struct.t_pbc = type { i32, i32, i32, i32, [3 x [3 x float]], [3 x float], [3 x float], [3 x float], float, i32, [12 x [3 x i32]], [12 x [3 x float]] }
%"class.std::vector" = type { %"struct.std::_Vector_base" }
%"struct.std::_Vector_base" = type { %"struct.std::_Vector_base<gmx::BasicVector<float>, std::allocator<gmx::BasicVector<float>>>::_Vector_impl" }
%"struct.std::_Vector_base<gmx::BasicVector<float>, std::allocator<gmx::BasicVector<float>>>::_Vector_impl" = type { %"struct.std::_Vector_base<gmx::BasicVector<float>, std::allocator<gmx::BasicVector<float>>>::_Vector_impl_data" }
%"struct.std::_Vector_base<gmx::BasicVector<float>, std::allocator<gmx::BasicVector<float>>>::_Vector_impl_data" = type { ptr, ptr, ptr }
%"class.std::vector.0" = type { %"struct.std::_Vector_base.1" }
%"struct.std::_Vector_base.1" = type { %"struct.std::_Vector_base<std::vector<int>, std::allocator<std::vector<int>>>::_Vector_impl" }
%"struct.std::_Vector_base<std::vector<int>, std::allocator<std::vector<int>>>::_Vector_impl" = type { %"struct.std::_Vector_base<std::vector<int>, std::allocator<std::vector<int>>>::_Vector_impl_data" }
%"struct.std::_Vector_base<std::vector<int>, std::allocator<std::vector<int>>>::_Vector_impl_data" = type { ptr, ptr, ptr }
%"class.std::mutex" = type { %"class.std::__mutex_base" }
%"class.std::__mutex_base" = type { %union.pthread_mutex_t }
%union.pthread_mutex_t = type { %struct.__pthread_mutex_s }
%struct.__pthread_mutex_s = type { i32, i32, i32, i32, i32, i16, i16, %struct.__pthread_internal_list }
%struct.__pthread_internal_list = type { ptr, ptr }
%"class.std::vector.5" = type { %"struct.std::_Vector_base.6" }
%"struct.std::_Vector_base.6" = type { %"struct.std::_Vector_base<std::shared_ptr<gmx::internal::AnalysisNeighborhoodPairSearchImpl>, std::allocator<std::shared_ptr<gmx::internal::AnalysisNeighborhoodPairSearchImpl>>>::_Vector_impl" }
%"struct.std::_Vector_base<std::shared_ptr<gmx::internal::AnalysisNeighborhoodPairSearchImpl>, std::allocator<std::shared_ptr<gmx::internal::AnalysisNeighborhoodPairSearchImpl>>>::_Vector_impl" = type { %"struct.std::_Vector_base<std::shared_ptr<gmx::internal::AnalysisNeighborhoodPairSearchImpl>, std::allocator<std::shared_ptr<gmx::internal::AnalysisNeighborhoodPairSearchImpl>>>::_Vector_impl_data" }
%"struct.std::_Vector_base<std::shared_ptr<gmx::internal::AnalysisNeighborhoodPairSearchImpl>, std::allocator<std::shared_ptr<gmx::internal::AnalysisNeighborhoodPairSearchImpl>>>::_Vector_impl_data" = type { ptr, ptr, ptr }
%"class.gmx::internal::AnalysisNeighborhoodPairSearchImpl" = type <{ ptr, i8, [3 x i8], i32, ptr, ptr, ptr, %"class.gmx::ArrayRef", i32, [3 x float], i32, float, [3 x float], i32, [3 x float], i32, [3 x i32], [3 x i32], i32, [4 x i8] }>
%"class.gmx::ArrayRef" = type { %"struct.gmx::ArrayRefIter", %"struct.gmx::ArrayRefIter" }
%"struct.gmx::ArrayRefIter" = type { ptr }
%"class.gmx::AnalysisNeighborhoodPositions" = type { i32, i32, ptr, ptr, ptr }
%class.anon.33 = type { i8 }

@.str.4 = private unnamed_addr constant [128 x i8] c"generated/home/dtcxzyw/WorkSpace/Projects/compilers/llvm-opt-benchmark/bench/gromacs/gromacs/src/gromacs/selection/nbsearch.cpp\00", align 1
@.str.11 = private unnamed_addr constant [58 x i8] c"search_.excls_ == nullptr || testExclusionIds_ != nullptr\00", align 1
@.str.12 = private unnamed_addr constant [54 x i8] c"Exclusion IDs must be set when exclusions are enabled\00", align 1

; Function Attrs: inlinehint mustprogress uwtable
define internal void @"_ZZN3gmx8internal34AnalysisNeighborhoodPairSearchImpl11startSearchERKNS_29AnalysisNeighborhoodPositionsEENK3$_0clEv"(ptr noundef nonnull align 1 dereferenceable(1) %0) #3 align 2 {
  %2 = alloca ptr, align 8
  store ptr %0, ptr %2, align 8, !tbaa !172
  call void @_ZN3gmx8internal13assertHandlerEPKcS2_S2_S2_i(ptr noundef @.str.11, ptr noundef @.str.12, ptr noundef @"__PRETTY_FUNCTION__._ZZN3gmx8internal34AnalysisNeighborhoodPairSearchImpl11startSearchERKNS_29AnalysisNeighborhoodPositionsEENK3$_0clEv", ptr noundef @.str.4, i32 noundef 1048) #24
  unreachable
}

; Function Attrs: mustprogress uwtable
define void @_ZN3gmx8internal34AnalysisNeighborhoodPairSearchImpl11startSearchERKNS_29AnalysisNeighborhoodPositionsE(ptr noundef nonnull align 8 dereferenceable(140) %0, ptr noundef nonnull align 8 dereferenceable(32) %1) #0 align 2 {
  %3 = alloca ptr, align 8
  %4 = alloca ptr, align 8
  %5 = alloca %class.anon.33, align 1
  store ptr %0, ptr %3, align 8, !tbaa !162
  store ptr %1, ptr %4, align 8, !tbaa !243
  %6 = load ptr, ptr %3, align 8
  %7 = getelementptr inbounds nuw %"class.gmx::internal::AnalysisNeighborhoodPairSearchImpl", ptr %6, i32 0, i32 1
  store i8 0, ptr %7, align 8, !tbaa !164
  %8 = load ptr, ptr %4, align 8, !tbaa !243
  %9 = getelementptr inbounds nuw %"class.gmx::AnalysisNeighborhoodPositions", ptr %8, i32 0, i32 0
  %10 = load i32, ptr %9, align 8, !tbaa !250
  %11 = getelementptr inbounds nuw %"class.gmx::internal::AnalysisNeighborhoodPairSearchImpl", ptr %6, i32 0, i32 3
  store i32 %10, ptr %11, align 4, !tbaa !168
  %12 = load ptr, ptr %4, align 8, !tbaa !243
  %13 = getelementptr inbounds nuw %"class.gmx::AnalysisNeighborhoodPositions", ptr %12, i32 0, i32 2
  %14 = load ptr, ptr %13, align 8, !tbaa !251
  %15 = getelementptr inbounds nuw %"class.gmx::internal::AnalysisNeighborhoodPairSearchImpl", ptr %6, i32 0, i32 4
  store ptr %14, ptr %15, align 8, !tbaa !169
  %16 = load ptr, ptr %4, align 8, !tbaa !243
  %17 = getelementptr inbounds nuw %"class.gmx::AnalysisNeighborhoodPositions", ptr %16, i32 0, i32 3
  %18 = load ptr, ptr %17, align 8, !tbaa !255
  %19 = getelementptr inbounds nuw %"class.gmx::internal::AnalysisNeighborhoodPairSearchImpl", ptr %6, i32 0, i32 5
  store ptr %18, ptr %19, align 8, !tbaa !170
  %20 = load ptr, ptr %4, align 8, !tbaa !243
  %21 = getelementptr inbounds nuw %"class.gmx::AnalysisNeighborhoodPositions", ptr %20, i32 0, i32 4
  %22 = load ptr, ptr %21, align 8, !tbaa !252
  %23 = getelementptr inbounds nuw %"class.gmx::internal::AnalysisNeighborhoodPairSearchImpl", ptr %6, i32 0, i32 6
  store ptr %22, ptr %23, align 8, !tbaa !171
  %24 = getelementptr inbounds nuw %"class.gmx::internal::AnalysisNeighborhoodPairSearchImpl", ptr %6, i32 0, i32 0
  %25 = load ptr, ptr %24, align 8, !tbaa !183
  %26 = getelementptr inbounds nuw %"class.gmx::internal::AnalysisNeighborhoodSearchImpl", ptr %25, i32 0, i32 8
  %27 = load ptr, ptr %26, align 8, !tbaa !186
  %28 = icmp eq ptr %27, null
  call void @llvm.lifetime.start.p0(i64 1, ptr %5) #20
  br i1 %28, label %33, label %29

29:                                               ; preds = %2
  %30 = getelementptr inbounds nuw %"class.gmx::internal::AnalysisNeighborhoodPairSearchImpl", ptr %6, i32 0, i32 5
  %31 = load ptr, ptr %30, align 8, !tbaa !170
  %32 = icmp ne ptr %31, null
  br i1 %32, label %33, label %34

33:                                               ; preds = %29, %2
  br label %35

34:                                               ; preds = %29
  call void @"_ZZN3gmx8internal34AnalysisNeighborhoodPairSearchImpl11startSearchERKNS_29AnalysisNeighborhoodPositionsEENK3$_0clEv"(ptr noundef nonnull align 1 dereferenceable(1) %5)
  br label %35

35:                                               ; preds = %34, %33
  call void @llvm.lifetime.end.p0(i64 1, ptr %5) #20
  %36 = load ptr, ptr %4, align 8, !tbaa !243
  %37 = getelementptr inbounds nuw %"class.gmx::AnalysisNeighborhoodPositions", ptr %36, i32 0, i32 1
  %38 = load i32, ptr %37, align 4, !tbaa !245
  %39 = icmp slt i32 %38, 0
  br i1 %39, label %40, label %41

40:                                               ; preds = %35
  call void @_ZN3gmx8internal34AnalysisNeighborhoodPairSearchImpl5resetEi(ptr noundef nonnull align 8 dereferenceable(140) %6, i32 noundef 0)
  br label %50

41:                                               ; preds = %35
  %42 = load ptr, ptr %4, align 8, !tbaa !243
  %43 = getelementptr inbounds nuw %"class.gmx::AnalysisNeighborhoodPositions", ptr %42, i32 0, i32 1
  %44 = load i32, ptr %43, align 4, !tbaa !245
  %45 = add nsw i32 %44, 1
  %46 = getelementptr inbounds nuw %"class.gmx::internal::AnalysisNeighborhoodPairSearchImpl", ptr %6, i32 0, i32 3
  store i32 %45, ptr %46, align 4, !tbaa !168
  %47 = load ptr, ptr %4, align 8, !tbaa !243
  %48 = getelementptr inbounds nuw %"class.gmx::AnalysisNeighborhoodPositions", ptr %47, i32 0, i32 1
  %49 = load i32, ptr %48, align 4, !tbaa !245
  call void @_ZN3gmx8internal34AnalysisNeighborhoodPairSearchImpl5resetEi(ptr noundef nonnull align 8 dereferenceable(140) %6, i32 noundef %49)
  br label %50

50:                                               ; preds = %41, %40
  ret void
}