; Function Attrs: mustprogress uwtable
define void @_ZN3gmx8internal34AnalysisNeighborhoodPairSearchImpl11startSearchERKNS_29AnalysisNeighborhoodPositionsE(ptr noundef nonnull align 8 captures(none) dereferenceable(140) initializes((8, 9), (12, 40)) %0, ptr noundef nonnull readonly align 8 captures(none) dereferenceable(32) %1) local_unnamed_addr #16 align 2 {
  %3 = getelementptr inbounds nuw i8, ptr %0, i64 8
  store i8 0, ptr %3, align 8, !tbaa !73
  %4 = load i32, ptr %1, align 8, !tbaa !145
  %5 = getelementptr inbounds nuw i8, ptr %0, i64 12
  store i32 %4, ptr %5, align 4, !tbaa !180
  %6 = getelementptr inbounds nuw i8, ptr %1, i64 8
  %7 = load ptr, ptr %6, align 8, !tbaa !148
  %8 = getelementptr inbounds nuw i8, ptr %0, i64 16
  store ptr %7, ptr %8, align 8, !tbaa !90
  %9 = getelementptr inbounds nuw i8, ptr %1, i64 16
  %10 = load ptr, ptr %9, align 8, !tbaa !153
  %11 = getelementptr inbounds nuw i8, ptr %0, i64 24
  store ptr %10, ptr %11, align 8, !tbaa !96
  %12 = getelementptr inbounds nuw i8, ptr %1, i64 24
  %13 = load ptr, ptr %12, align 8, !tbaa !146
  %14 = getelementptr inbounds nuw i8, ptr %0, i64 32
  store ptr %13, ptr %14, align 8, !tbaa !85
  %15 = load ptr, ptr %0, align 8, !tbaa !86
  %16 = getelementptr inbounds nuw i8, ptr %15, i64 48
  %17 = load ptr, ptr %16, align 8, !tbaa !95
  %18 = icmp ne ptr %17, null
  %.not = icmp eq ptr %10, null
  %or.cond = select i1 %18, i1 %.not, i1 false
  br i1 %or.cond, label %19, label %20

19:                                               ; preds = %2
  tail call void @_ZN3gmx8internal13assertHandlerEPKcS2_S2_S2_i(ptr noundef nonnull @.str.11, ptr noundef nonnull @.str.12, ptr noundef nonnull @"__PRETTY_FUNCTION__._ZZN3gmx8internal34AnalysisNeighborhoodPairSearchImpl11startSearchERKNS_29AnalysisNeighborhoodPositionsEENK3$_0clEv", ptr noundef nonnull @.str.4, i32 noundef 1048) #40
  unreachable

20:                                               ; preds = %2
  %21 = getelementptr inbounds nuw i8, ptr %1, i64 4
  %22 = load i32, ptr %21, align 4, !tbaa !133
  %23 = icmp slt i32 %22, 0
  br i1 %23, label %26, label %24

24:                                               ; preds = %20
  %25 = add nuw nsw i32 %22, 1
  store i32 %25, ptr %5, align 4, !tbaa !180
  br label %26

26:                                               ; preds = %20, %24
  %.sink = phi i32 [ %22, %24 ], [ 0, %20 ]
  tail call void @_ZN3gmx8internal34AnalysisNeighborhoodPairSearchImpl5resetEi(ptr noundef nonnull align 8 dereferenceable(140) %0, i32 noundef %.sink)
  ret void
}